target datalayout = "e-m:e-p270:32:32-p271:32:32-p272:64:64-i64:64-i128:128-f80:128-n8:16:32:64-S128"
target triple = "x86_64-unknown-linux-gnu"

%class.approx_set = type { %class.approx_set_tpl }
%class.approx_set_tpl = type { i64 }
%class.symbol = type { ptr }
%"struct.q::instruction" = type { i32, ptr }
%class.decl = type { %class.ast, %class.symbol, ptr }
%class.ast = type { i32, i24, i32, i32 }
%"struct.q::cont" = type { %"struct.q::instruction", ptr, i16, i32, %class.approx_set, [0 x ptr] }

@.str.3 = private unnamed_addr constant [2 x i8] c" \00", align 1
@.str.12 = private unnamed_addr constant [11 x i8] c"(CONTINUE \00", align 1
@.str.13 = private unnamed_addr constant [3 x i8] c" (\00", align 1
@.str.14 = private unnamed_addr constant [3 x i8] c"))\00", align 1
@.str.36 = private unnamed_addr constant [5 x i8] c"null\00", align 1
@.str.37 = private unnamed_addr constant [3 x i8] c"k!\00", align 1

; Function Attrs: mustprogress uwtable
define linkonce_odr hidden noundef nonnull align 8 dereferenceable(8) ptr @_ZlsRSoRK10approx_set(ptr noundef nonnull align 8 dereferenceable(8) %out, ptr noundef nonnull align 8 dereferenceable(8) %s) #5 comdat {
entry:
  %out.addr = alloca ptr, align 8
  %s.addr = alloca ptr, align 8
  store ptr %out, ptr %out.addr, align 8
  store ptr %s, ptr %s.addr, align 8
  %0 = load ptr, ptr %s.addr, align 8
  %1 = load ptr, ptr %out.addr, align 8
  call void @_ZNK10approx_set7displayERSo(ptr noundef nonnull align 8 dereferenceable(8) %0, ptr noundef nonnull align 8 dereferenceable(8) %1)
  %2 = load ptr, ptr %out.addr, align 8
  ret ptr %2
}

; Function Attrs: mustprogress uwtable
define linkonce_odr hidden noundef nonnull align 8 dereferenceable(8) ptr @_ZlsRSo6symbol(ptr noundef nonnull align 8 dereferenceable(8) %target, ptr %s.coerce) #5 comdat {
entry:
  %s = alloca %class.symbol, align 8
  %target.addr = alloca ptr, align 8
  %coerce.dive = getelementptr inbounds %class.symbol, ptr %s, i32 0, i32 0
  store ptr %s.coerce, ptr %coerce.dive, align 8
  store ptr %target, ptr %target.addr, align 8
  %m_data = getelementptr inbounds %class.symbol, ptr %s, i32 0, i32 0
  %0 = load ptr, ptr %m_data, align 8
  %1 = ptrtoint ptr %0 to i64
  %and = and i64 %1, 7
  %cmp = icmp eq i64 %and, 0
  br i1 %cmp, label %if.then, label %if.else5

if.then:                                          ; preds = %entry
  %m_data1 = getelementptr inbounds %class.symbol, ptr %s, i32 0, i32 0
  %2 = load ptr, ptr %m_data1, align 8
  %tobool = icmp ne ptr %2, null
  br i1 %tobool, label %if.then2, label %if.else

if.then2:                                         ; preds = %if.then
  %3 = load ptr, ptr %target.addr, align 8
  %m_data3 = getelementptr inbounds %class.symbol, ptr %s, i32 0, i32 0
  %4 = load ptr, ptr %m_data3, align 8
  %call = call noundef nonnull align 8 dereferenceable(8) ptr @_ZStlsISt11char_traitsIcEERSt13basic_ostreamIcT_ES5_PKc(ptr noundef nonnull align 8 dereferenceable(8) %3, ptr noundef %4)
  br label %if.end

if.else:                                          ; preds = %if.then
  %5 = load ptr, ptr %target.addr, align 8
  %call4 = call noundef nonnull align 8 dereferenceable(8) ptr @_ZStlsISt11char_traitsIcEERSt13basic_ostreamIcT_ES5_PKc(ptr noundef nonnull align 8 dereferenceable(8) %5, ptr noundef @.str.36)
  br label %if.end

if.end:                                           ; preds = %if.else, %if.then2
  br label %if.end9

if.else5:                                         ; preds = %entry
  %6 = load ptr, ptr %target.addr, align 8
  %call6 = call noundef nonnull align 8 dereferenceable(8) ptr @_ZStlsISt11char_traitsIcEERSt13basic_ostreamIcT_ES5_PKc(ptr noundef nonnull align 8 dereferenceable(8) %6, ptr noundef @.str.37)
  %m_data7 = getelementptr inbounds %class.symbol, ptr %s, i32 0, i32 0
  %7 = load ptr, ptr %m_data7, align 8
  %8 = ptrtoint ptr %7 to i64
  %shr = lshr i64 %8, 3
  %conv = trunc i64 %shr to i32
  %call8 = call noundef nonnull align 8 dereferenceable(8) ptr @_ZNSolsEi(ptr noundef nonnull align 8 dereferenceable(8) %call6, i32 noundef %conv)
  br label %if.end9

if.end9:                                          ; preds = %if.else5, %if.end
  %9 = load ptr, ptr %target.addr, align 8
  ret ptr %9
}

; Function Attrs: mustprogress nounwind uwtable
define linkonce_odr hidden noundef nonnull align 8 dereferenceable(8) ptr @_ZNK4decl8get_nameEv(ptr noundef nonnull align 8 dereferenceable(32) %this) #4 comdat align 2 {
entry:
  %this.addr = alloca ptr, align 8
  store ptr %this, ptr %this.addr, align 8
  %this1 = load ptr, ptr %this.addr, align 8
  %m_name = getelementptr inbounds %class.decl, ptr %this1, i32 0, i32 1
  ret ptr %m_name
}

; Function Attrs: mustprogress uwtable
define hidden void @_ZN1q16display_continueERSoRKNS_4contE(ptr noundef nonnull align 8 dereferenceable(8) %out, ptr noundef nonnull align 8 dereferenceable(40) %c) #5 {
entry:
  %out.addr = alloca ptr, align 8
  %c.addr = alloca ptr, align 8
  %agg.tmp = alloca %class.symbol, align 8
  store ptr %out, ptr %out.addr, align 8
  store ptr %c, ptr %c.addr, align 8
  %0 = load ptr, ptr %out.addr, align 8
  %call = call noundef nonnull align 8 dereferenceable(8) ptr @_ZStlsISt11char_traitsIcEERSt13basic_ostreamIcT_ES5_PKc(ptr noundef nonnull align 8 dereferenceable(8) %0, ptr noundef @.str.12)
  %1 = load ptr, ptr %c.addr, align 8
  %m_label = getelementptr inbounds %"struct.q::cont", ptr %1, i32 0, i32 1
  %2 = load ptr, ptr %m_label, align 8
  %call1 = call noundef nonnull align 8 dereferenceable(8) ptr @_ZNK4decl8get_nameEv(ptr noundef nonnull align 8 dereferenceable(32) %2)
  call void @llvm.memcpy.p0.p0.i64(ptr align 8 %agg.tmp, ptr align 8 %call1, i64 8, i1 false)
  %coerce.dive = getelementptr inbounds %class.symbol, ptr %agg.tmp, i32 0, i32 0
  %3 = load ptr, ptr %coerce.dive, align 8
  %call2 = call noundef nonnull align 8 dereferenceable(8) ptr @_ZlsRSo6symbol(ptr noundef nonnull align 8 dereferenceable(8) %call, ptr %3)
  %call3 = call noundef nonnull align 8 dereferenceable(8) ptr @_ZStlsISt11char_traitsIcEERSt13basic_ostreamIcT_ES5_PKc(ptr noundef nonnull align 8 dereferenceable(8) %call2, ptr noundef @.str.3)
  %4 = load ptr, ptr %c.addr, align 8
  %m_num_args = getelementptr inbounds %"struct.q::cont", ptr %4, i32 0, i32 2
  %5 = load i16, ptr %m_num_args, align 8
  %call4 = call noundef nonnull align 8 dereferenceable(8) ptr @_ZNSolsEt(ptr noundef nonnull align 8 dereferenceable(8) %call3, i16 noundef zeroext %5)
  %call5 = call noundef nonnull align 8 dereferenceable(8) ptr @_ZStlsISt11char_traitsIcEERSt13basic_ostreamIcT_ES5_PKc(ptr noundef nonnull align 8 dereferenceable(8) %call4, ptr noundef @.str.3)
  %6 = load ptr, ptr %c.addr, align 8
  %m_oreg = getelementptr inbounds %"struct.q::cont", ptr %6, i32 0, i32 3
  %7 = load i32, ptr %m_oreg, align 4
  %call6 = call noundef nonnull align 8 dereferenceable(8) ptr @_ZNSolsEj(ptr noundef nonnull align 8 dereferenceable(8) %call5, i32 noundef %7)
  %call7 = call noundef nonnull align 8 dereferenceable(8) ptr @_ZStlsISt11char_traitsIcEERSt13basic_ostreamIcT_ES5_PKc(ptr noundef nonnull align 8 dereferenceable(8) %call6, ptr noundef @.str.3)
  %8 = load ptr, ptr %c.addr, align 8
  %m_lbl_set = getelementptr inbounds %"struct.q::cont", ptr %8, i32 0, i32 4
  %call8 = call noundef nonnull align 8 dereferenceable(8) ptr @_ZlsRSoRK10approx_set(ptr noundef nonnull align 8 dereferenceable(8) %call7, ptr noundef nonnull align 8 dereferenceable(8) %m_lbl_set)
  %call9 = call noundef nonnull align 8 dereferenceable(8) ptr @_ZStlsISt11char_traitsIcEERSt13basic_ostreamIcT_ES5_PKc(ptr noundef nonnull align 8 dereferenceable(8) %call8, ptr noundef @.str.13)
  %9 = load ptr, ptr %out.addr, align 8
  %10 = load ptr, ptr %c.addr, align 8
  %m_num_args10 = getelementptr inbounds %"struct.q::cont", ptr %10, i32 0, i32 2
  %11 = load i16, ptr %m_num_args10, align 8
  %conv = zext i16 %11 to i32
  %12 = load ptr, ptr %c.addr, align 8
  %m_joints = getelementptr inbounds %"struct.q::cont", ptr %12, i32 0, i32 5
  %arraydecay = getelementptr inbounds [0 x ptr], ptr %m_joints, i64 0, i64 0
  call void @_ZN1q14display_jointsERSojPKPN3euf5enodeE(ptr noundef nonnull align 8 dereferenceable(8) %9, i32 noundef %conv, ptr noundef %arraydecay)
  %13 = load ptr, ptr %out.addr, align 8
  %call11 = call noundef nonnull align 8 dereferenceable(8) ptr @_ZStlsISt11char_traitsIcEERSt13basic_ostreamIcT_ES5_PKc(ptr noundef nonnull align 8 dereferenceable(8) %13, ptr noundef @.str.14)
  ret void
}